target datalayout = "e-m:e-p270:32:32-p271:32:32-p272:64:64-i64:64-i128:128-f80:128-n8:16:32:64-S128"
target triple = "x86_64-pc-linux-gnu"

%struct.LexState = type { ptr, ptr, %union.TValue, %union.TValue, ptr, ptr, i32, i32, i32, %struct.SBuf, ptr, ptr, i32, i32, ptr, ptr, ptr, ptr, i32, i32, ptr, i32, i32, i32, i32 }
%union.TValue = type { i64 }
%struct.SBuf = type { ptr, ptr, ptr, %struct.MRef }
%struct.MRef = type { i64 }

@lj_char_bits = external hidden constant [257 x i8], align 16
@.str.1 = private unnamed_addr constant [3 x i8] c"%c\00", align 1
@.str.2 = private unnamed_addr constant [9 x i8] c"char(%d)\00", align 1

; Function Attrs: nounwind uwtable
define hidden ptr @lj_lex_token2str(ptr noundef %0, i32 noundef %1) #0 {
  %3 = alloca ptr, align 8
  %4 = alloca ptr, align 8
  %5 = alloca i32, align 4
  store ptr %0, ptr %4, align 8, !tbaa !9
  store i32 %1, ptr %5, align 4, !tbaa !11
  %6 = load i32, ptr %5, align 4, !tbaa !11
  %7 = icmp sgt i32 %6, 256
  br i1 %7, label %8, label %15

8:                                                ; preds = %2
  %9 = load i32, ptr %5, align 4, !tbaa !11
  %10 = sub nsw i32 %9, 256
  %11 = sub nsw i32 %10, 1
  %12 = sext i32 %11 to i64
  %13 = getelementptr inbounds [34 x ptr], ptr @tokennames, i64 0, i64 %12
  %14 = load ptr, ptr %13, align 8, !tbaa !73
  store ptr %14, ptr %3, align 8
  br label %35

15:                                               ; preds = %2
  %16 = load i32, ptr %5, align 4, !tbaa !11
  %17 = sext i32 %16 to i64
  %18 = getelementptr inbounds i8, ptr getelementptr inbounds (i8, ptr @lj_char_bits, i64 1), i64 %17
  %19 = load i8, ptr %18, align 1, !tbaa !38
  %20 = zext i8 %19 to i32
  %21 = and i32 %20, 1
  %22 = icmp ne i32 %21, 0
  br i1 %22, label %29, label %23

23:                                               ; preds = %15
  %24 = load ptr, ptr %4, align 8, !tbaa !9
  %25 = getelementptr inbounds nuw %struct.LexState, ptr %24, i32 0, i32 1
  %26 = load ptr, ptr %25, align 8, !tbaa !13
  %27 = load i32, ptr %5, align 4, !tbaa !11
  %28 = call ptr (ptr, ptr, ...) @lj_strfmt_pushf(ptr noundef %26, ptr noundef @.str.1, i32 noundef %27)
  store ptr %28, ptr %3, align 8
  br label %35

29:                                               ; preds = %15
  %30 = load ptr, ptr %4, align 8, !tbaa !9
  %31 = getelementptr inbounds nuw %struct.LexState, ptr %30, i32 0, i32 1
  %32 = load ptr, ptr %31, align 8, !tbaa !13
  %33 = load i32, ptr %5, align 4, !tbaa !11
  %34 = call ptr (ptr, ptr, ...) @lj_strfmt_pushf(ptr noundef %32, ptr noundef @.str.2, i32 noundef %33)
  store ptr %34, ptr %3, align 8
  br label %35

35:                                               ; preds = %29, %23, %8
  %36 = load ptr, ptr %3, align 8
  ret ptr %36
}